target datalayout = "e-m:e-p270:32:32-p271:32:32-p272:64:64-i64:64-i128:128-f80:128-n8:16:32:64-S128"
target triple = "x86_64-unknown-linux-gnu"

%"class.arrow::Status" = type { ptr }
%"class.arrow::Result" = type <{ %"class.arrow::Status", %"class.arrow::internal::AlignedStorage", [7 x i8] }>
%"class.arrow::internal::AlignedStorage" = type { %"union.std::aligned_storage<1, 1>::type" }
%"union.std::aligned_storage<1, 1>::type" = type { [1 x i8] }
%"class.std::unique_ptr.111" = type { %"struct.std::__uniq_ptr_data.112" }
%"struct.std::__uniq_ptr_data.112" = type { %"class.std::__uniq_ptr_impl.113" }
%"class.std::__uniq_ptr_impl.113" = type { %"class.std::tuple.114" }
%"class.std::tuple.114" = type { %"struct.std::_Tuple_impl.115" }
%"struct.std::_Tuple_impl.115" = type { %"struct.std::_Tuple_impl.116", %"struct.std::_Head_base.118" }
%"struct.std::_Tuple_impl.116" = type { %"struct.std::_Head_base.117" }
%"struct.std::_Head_base.117" = type { ptr }
%"struct.std::_Head_base.118" = type { ptr }
%"class.arrow::FutureImpl" = type { ptr, %"class.std::enable_shared_from_this", %"struct.std::atomic", %"class.std::unique_ptr.111", %"class.std::vector" }
%"class.std::enable_shared_from_this" = type { %"class.std::weak_ptr" }
%"class.std::weak_ptr" = type { %"class.std::__weak_ptr" }
%"class.std::__weak_ptr" = type { ptr, %"class.std::__weak_count" }
%"class.std::__weak_count" = type { ptr }
%"struct.std::atomic" = type { i8 }
%"class.std::vector" = type { %"struct.std::_Vector_base" }
%"struct.std::_Vector_base" = type { %"struct.std::_Vector_base<arrow::FutureImpl::CallbackRecord, std::allocator<arrow::FutureImpl::CallbackRecord>>::_Vector_impl" }
%"struct.std::_Vector_base<arrow::FutureImpl::CallbackRecord, std::allocator<arrow::FutureImpl::CallbackRecord>>::_Vector_impl" = type { %"struct.std::_Vector_base<arrow::FutureImpl::CallbackRecord, std::allocator<arrow::FutureImpl::CallbackRecord>>::_Vector_impl_data" }
%"struct.std::_Vector_base<arrow::FutureImpl::CallbackRecord, std::allocator<arrow::FutureImpl::CallbackRecord>>::_Vector_impl_data" = type { ptr, ptr, ptr }
%"class.std::unique_ptr.132" = type { %"struct.std::__uniq_ptr_data.133" }
%"struct.std::__uniq_ptr_data.133" = type { %"class.std::__uniq_ptr_impl.134" }
%"class.std::__uniq_ptr_impl.134" = type { %"class.std::tuple.135" }
%"class.std::tuple.135" = type { %"struct.std::_Tuple_impl.136" }
%"struct.std::_Tuple_impl.136" = type { %"struct.std::_Head_base.139" }
%"struct.std::_Head_base.139" = type { ptr }
%"struct.arrow::Future<>::WrapStatusyOnComplete::Callback" = type { %class.anon.171 }
%class.anon.171 = type { ptr, %"class.std::unique_ptr.132" }
%"struct.arrow::internal::FnOnce<void (const arrow::FutureImpl &)>::FnImpl" = type { %"struct.arrow::internal::FnOnce<void (const arrow::FutureImpl &)>::Impl", %"struct.arrow::Future<>::WrapStatusyOnComplete::Callback" }
%"struct.arrow::internal::FnOnce<void (const arrow::FutureImpl &)>::Impl" = type { ptr }

; Function Attrs: mustprogress nounwind uwtable
define linkonce_odr noundef nonnull align 1 dereferenceable(1) ptr @_ZNSt10_Head_baseILm1ESt14default_deleteIN5arrow4util18AsyncTaskScheduler4TaskEELb1EE7_M_headERS6_(ptr noundef nonnull align 1 dereferenceable(1) %__b) #2 comdat align 2 {
entry:
  %__b.addr = alloca ptr, align 8
  store ptr %__b, ptr %__b.addr, align 8
  %0 = load ptr, ptr %__b.addr, align 8
  ret ptr %0
}

; Function Attrs: mustprogress nounwind uwtable
define linkonce_odr noundef nonnull align 8 dereferenceable(8) ptr @_ZNSt10_Head_baseILm0EPN5arrow4util18AsyncTaskScheduler4TaskELb0EE7_M_headERS5_(ptr noundef nonnull align 8 dereferenceable(8) %__b) #2 comdat align 2 {
entry:
  %__b.addr = alloca ptr, align 8
  store ptr %__b, ptr %__b.addr, align 8
  %0 = load ptr, ptr %__b.addr, align 8
  %_M_head_impl = getelementptr inbounds %"struct.std::_Head_base.139", ptr %0, i32 0, i32 0
  ret ptr %_M_head_impl
}

; Function Attrs: mustprogress nounwind uwtable
define linkonce_odr noundef nonnull align 1 dereferenceable(1) ptr @_ZNSt11_Tuple_implILm1EJSt14default_deleteIN5arrow4util18AsyncTaskScheduler4TaskEEEE7_M_headERS6_(ptr noundef nonnull align 1 dereferenceable(1) %__t) #2 comdat align 2 {
entry:
  %__t.addr = alloca ptr, align 8
  store ptr %__t, ptr %__t.addr, align 8
  %0 = load ptr, ptr %__t.addr, align 8
  %call = call noundef nonnull align 1 dereferenceable(1) ptr @_ZNSt10_Head_baseILm1ESt14default_deleteIN5arrow4util18AsyncTaskScheduler4TaskEELb1EE7_M_headERS6_(ptr noundef nonnull align 1 dereferenceable(1) %0) #11
  ret ptr %call
}

; Function Attrs: mustprogress nounwind uwtable
define linkonce_odr noundef nonnull align 8 dereferenceable(8) ptr @_ZNSt11_Tuple_implILm0EJPN5arrow4util18AsyncTaskScheduler4TaskESt14default_deleteIS3_EEE7_M_headERS7_(ptr noundef nonnull align 8 dereferenceable(8) %__t) #2 comdat align 2 {
entry:
  %__t.addr = alloca ptr, align 8
  store ptr %__t, ptr %__t.addr, align 8
  %0 = load ptr, ptr %__t.addr, align 8
  %call = call noundef nonnull align 8 dereferenceable(8) ptr @_ZNSt10_Head_baseILm0EPN5arrow4util18AsyncTaskScheduler4TaskELb0EE7_M_headERS5_(ptr noundef nonnull align 8 dereferenceable(8) %0) #11
  ret ptr %call
}

; Function Attrs: mustprogress nounwind uwtable
define linkonce_odr noundef nonnull align 8 dereferenceable(8) ptr @_ZNSt10_Head_baseILm0EPvLb0EE7_M_headERKS1_(ptr noundef nonnull align 8 dereferenceable(8) %__b) #2 comdat align 2 {
entry:
  %__b.addr = alloca ptr, align 8
  store ptr %__b, ptr %__b.addr, align 8
  %0 = load ptr, ptr %__b.addr, align 8
  %_M_head_impl = getelementptr inbounds %"struct.std::_Head_base.118", ptr %0, i32 0, i32 0
  ret ptr %_M_head_impl
}

; Function Attrs: mustprogress nounwind uwtable
define linkonce_odr noundef nonnull align 1 dereferenceable(1) ptr @_ZSt12__get_helperILm1ESt14default_deleteIN5arrow4util18AsyncTaskScheduler4TaskEEJEERT0_RSt11_Tuple_implIXT_EJS6_DpT1_EE(ptr noundef nonnull align 1 dereferenceable(1) %__t) #2 comdat {
entry:
  %__t.addr = alloca ptr, align 8
  store ptr %__t, ptr %__t.addr, align 8
  %0 = load ptr, ptr %__t.addr, align 8
  %call = call noundef nonnull align 1 dereferenceable(1) ptr @_ZNSt11_Tuple_implILm1EJSt14default_deleteIN5arrow4util18AsyncTaskScheduler4TaskEEEE7_M_headERS6_(ptr noundef nonnull align 1 dereferenceable(1) %0) #11
  ret ptr %call
}

; Function Attrs: mustprogress nounwind uwtable
define linkonce_odr noundef nonnull align 8 dereferenceable(8) ptr @_ZSt12__get_helperILm0EPN5arrow4util18AsyncTaskScheduler4TaskEJSt14default_deleteIS3_EEERT0_RSt11_Tuple_implIXT_EJS7_DpT1_EE(ptr noundef nonnull align 8 dereferenceable(8) %__t) #2 comdat {
entry:
  %__t.addr = alloca ptr, align 8
  store ptr %__t, ptr %__t.addr, align 8
  %0 = load ptr, ptr %__t.addr, align 8
  %call = call noundef nonnull align 8 dereferenceable(8) ptr @_ZNSt11_Tuple_implILm0EJPN5arrow4util18AsyncTaskScheduler4TaskESt14default_deleteIS3_EEE7_M_headERS7_(ptr noundef nonnull align 8 dereferenceable(8) %0) #11
  ret ptr %call
}

; Function Attrs: mustprogress nounwind uwtable
define linkonce_odr noundef nonnull align 8 dereferenceable(8) ptr @_ZNSt11_Tuple_implILm0EJPvPFvS0_EEE7_M_headERKS3_(ptr noundef nonnull align 8 dereferenceable(16) %__t) #2 comdat align 2 {
entry:
  %__t.addr = alloca ptr, align 8
  store ptr %__t, ptr %__t.addr, align 8
  %0 = load ptr, ptr %__t.addr, align 8
  %add.ptr = getelementptr inbounds i8, ptr %0, i64 8
  %call = call noundef nonnull align 8 dereferenceable(8) ptr @_ZNSt10_Head_baseILm0EPvLb0EE7_M_headERKS1_(ptr noundef nonnull align 8 dereferenceable(8) %add.ptr) #11
  ret ptr %call
}

; Function Attrs: mustprogress nounwind uwtable
define linkonce_odr noundef nonnull align 1 dereferenceable(1) ptr @_ZSt3getILm1EJPN5arrow4util18AsyncTaskScheduler4TaskESt14default_deleteIS3_EEERNSt13tuple_elementIXT_ESt5tupleIJDpT0_EEE4typeERSB_(ptr noundef nonnull align 8 dereferenceable(8) %__t) #2 comdat {
entry:
  %__t.addr = alloca ptr, align 8
  store ptr %__t, ptr %__t.addr, align 8
  %0 = load ptr, ptr %__t.addr, align 8
  %call = call noundef nonnull align 1 dereferenceable(1) ptr @_ZSt12__get_helperILm1ESt14default_deleteIN5arrow4util18AsyncTaskScheduler4TaskEEJEERT0_RSt11_Tuple_implIXT_EJS6_DpT1_EE(ptr noundef nonnull align 1 dereferenceable(1) %0) #11
  ret ptr %call
}

; Function Attrs: mustprogress nounwind uwtable
define linkonce_odr noundef nonnull align 8 dereferenceable(8) ptr @_ZSt3getILm0EJPN5arrow4util18AsyncTaskScheduler4TaskESt14default_deleteIS3_EEERNSt13tuple_elementIXT_ESt5tupleIJDpT0_EEE4typeERSB_(ptr noundef nonnull align 8 dereferenceable(8) %__t) #2 comdat {
entry:
  %__t.addr = alloca ptr, align 8
  store ptr %__t, ptr %__t.addr, align 8
  %0 = load ptr, ptr %__t.addr, align 8
  %call = call noundef nonnull align 8 dereferenceable(8) ptr @_ZSt12__get_helperILm0EPN5arrow4util18AsyncTaskScheduler4TaskEJSt14default_deleteIS3_EEERT0_RSt11_Tuple_implIXT_EJS7_DpT1_EE(ptr noundef nonnull align 8 dereferenceable(8) %0) #11
  ret ptr %call
}

; Function Attrs: mustprogress nounwind uwtable
define linkonce_odr noundef nonnull align 8 dereferenceable(8) ptr @_ZSt12__get_helperILm0EPvJPFvS0_EEERKT0_RKSt11_Tuple_implIXT_EJS3_DpT1_EE(ptr noundef nonnull align 8 dereferenceable(16) %__t) #2 comdat {
entry:
  %__t.addr = alloca ptr, align 8
  store ptr %__t, ptr %__t.addr, align 8
  %0 = load ptr, ptr %__t.addr, align 8
  %call = call noundef nonnull align 8 dereferenceable(8) ptr @_ZNSt11_Tuple_implILm0EJPvPFvS0_EEE7_M_headERKS3_(ptr noundef nonnull align 8 dereferenceable(16) %0) #11
  ret ptr %call
}

; Function Attrs: noreturn nounwind uwtable
define linkonce_odr hidden void @__clang_call_terminate(ptr noundef %0) #6 comdat {
  %2 = call ptr @__cxa_begin_catch(ptr %0) #11
  call void @_ZSt9terminatev() #14
  unreachable
}

; Function Attrs: mustprogress nounwind uwtable
define linkonce_odr void @_ZNKSt14default_deleteIN5arrow4util18AsyncTaskScheduler4TaskEEclEPS3_(ptr noundef nonnull align 1 dereferenceable(1) %this, ptr noundef %__ptr) #2 comdat align 2 {
entry:
  %this.addr = alloca ptr, align 8
  %__ptr.addr = alloca ptr, align 8
  store ptr %this, ptr %this.addr, align 8
  store ptr %__ptr, ptr %__ptr.addr, align 8
  %0 = load ptr, ptr %__ptr.addr, align 8
  %isnull = icmp eq ptr %0, null
  br i1 %isnull, label %delete.end, label %delete.notnull

delete.notnull:                                   ; preds = %entry
  %vtable = load ptr, ptr %0, align 8
  %vfn = getelementptr inbounds ptr, ptr %vtable, i64 1
  %1 = load ptr, ptr %vfn, align 8
  call void %1(ptr noundef nonnull align 8 dereferenceable(16) %0) #11
  br label %delete.end

delete.end:                                       ; preds = %delete.notnull, %entry
  ret void
}

; Function Attrs: mustprogress nounwind uwtable
define linkonce_odr noundef nonnull align 1 dereferenceable(1) ptr @_ZNSt15__uniq_ptr_implIN5arrow4util18AsyncTaskScheduler4TaskESt14default_deleteIS3_EE10_M_deleterEv(ptr noundef nonnull align 8 dereferenceable(8) %this) #2 comdat align 2 {
entry:
  %this.addr = alloca ptr, align 8
  store ptr %this, ptr %this.addr, align 8
  %this1 = load ptr, ptr %this.addr, align 8
  %_M_t = getelementptr inbounds %"class.std::__uniq_ptr_impl.134", ptr %this1, i32 0, i32 0
  %call = call noundef nonnull align 1 dereferenceable(1) ptr @_ZSt3getILm1EJPN5arrow4util18AsyncTaskScheduler4TaskESt14default_deleteIS3_EEERNSt13tuple_elementIXT_ESt5tupleIJDpT0_EEE4typeERSB_(ptr noundef nonnull align 8 dereferenceable(8) %_M_t) #11
  ret ptr %call
}

; Function Attrs: mustprogress nounwind uwtable
define linkonce_odr noundef nonnull align 8 dereferenceable(8) ptr @_ZNSt15__uniq_ptr_implIN5arrow4util18AsyncTaskScheduler4TaskESt14default_deleteIS3_EE6_M_ptrEv(ptr noundef nonnull align 8 dereferenceable(8) %this) #2 comdat align 2 {
entry:
  %this.addr = alloca ptr, align 8
  store ptr %this, ptr %this.addr, align 8
  %this1 = load ptr, ptr %this.addr, align 8
  %_M_t = getelementptr inbounds %"class.std::__uniq_ptr_impl.134", ptr %this1, i32 0, i32 0
  %call = call noundef nonnull align 8 dereferenceable(8) ptr @_ZSt3getILm0EJPN5arrow4util18AsyncTaskScheduler4TaskESt14default_deleteIS3_EEERNSt13tuple_elementIXT_ESt5tupleIJDpT0_EEE4typeERSB_(ptr noundef nonnull align 8 dereferenceable(8) %_M_t) #11
  ret ptr %call
}

; Function Attrs: mustprogress nounwind uwtable
define linkonce_odr noundef nonnull align 8 dereferenceable(8) ptr @_ZSt3getILm0EJPvPFvS0_EEERKNSt13tuple_elementIXT_ESt5tupleIJDpT0_EEE4typeERKS7_(ptr noundef nonnull align 8 dereferenceable(16) %__t) #2 comdat {
entry:
  %__t.addr = alloca ptr, align 8
  store ptr %__t, ptr %__t.addr, align 8
  %0 = load ptr, ptr %__t.addr, align 8
  %call = call noundef nonnull align 8 dereferenceable(8) ptr @_ZSt12__get_helperILm0EPvJPFvS0_EEERKT0_RKSt11_Tuple_implIXT_EJS3_DpT1_EE(ptr noundef nonnull align 8 dereferenceable(16) %0) #11
  ret ptr %call
}

; Function Attrs: mustprogress nounwind uwtable
define linkonce_odr void @_ZNSt15__uniq_ptr_implIN5arrow4util18AsyncTaskScheduler4TaskESt14default_deleteIS3_EE5resetEPS3_(ptr noundef nonnull align 8 dereferenceable(8) %this, ptr noundef %__p) #2 comdat align 2 personality ptr @__gxx_personality_v0 {
entry:
  %this.addr = alloca ptr, align 8
  %__p.addr = alloca ptr, align 8
  %__old_p = alloca ptr, align 8
  store ptr %this, ptr %this.addr, align 8
  store ptr %__p, ptr %__p.addr, align 8
  %this1 = load ptr, ptr %this.addr, align 8
  %call = call noundef nonnull align 8 dereferenceable(8) ptr @_ZNSt15__uniq_ptr_implIN5arrow4util18AsyncTaskScheduler4TaskESt14default_deleteIS3_EE6_M_ptrEv(ptr noundef nonnull align 8 dereferenceable(8) %this1) #11
  %0 = load ptr, ptr %call, align 8
  store ptr %0, ptr %__old_p, align 8
  %1 = load ptr, ptr %__p.addr, align 8
  %call2 = call noundef nonnull align 8 dereferenceable(8) ptr @_ZNSt15__uniq_ptr_implIN5arrow4util18AsyncTaskScheduler4TaskESt14default_deleteIS3_EE6_M_ptrEv(ptr noundef nonnull align 8 dereferenceable(8) %this1) #11
  store ptr %1, ptr %call2, align 8
  %2 = load ptr, ptr %__old_p, align 8
  %tobool = icmp ne ptr %2, null
  br i1 %tobool, label %if.then, label %if.end

if.then:                                          ; preds = %entry
  %call3 = call noundef nonnull align 1 dereferenceable(1) ptr @_ZNSt15__uniq_ptr_implIN5arrow4util18AsyncTaskScheduler4TaskESt14default_deleteIS3_EE10_M_deleterEv(ptr noundef nonnull align 8 dereferenceable(8) %this1) #11
  %3 = load ptr, ptr %__old_p, align 8
  invoke void @_ZNKSt14default_deleteIN5arrow4util18AsyncTaskScheduler4TaskEEclEPS3_(ptr noundef nonnull align 1 dereferenceable(1) %call3, ptr noundef %3)
          to label %invoke.cont unwind label %terminate.lpad

invoke.cont:                                      ; preds = %if.then
  br label %if.end

if.end:                                           ; preds = %invoke.cont, %entry
  ret void

terminate.lpad:                                   ; preds = %if.then
  %4 = landingpad { ptr, i32 }
          catch ptr null
  %5 = extractvalue { ptr, i32 } %4, 0
  call void @__clang_call_terminate(ptr %5) #14
  unreachable
}

; Function Attrs: mustprogress nounwind uwtable
define linkonce_odr noundef ptr @_ZNKSt15__uniq_ptr_implIvPFvPvEE6_M_ptrEv(ptr noundef nonnull align 8 dereferenceable(16) %this) #2 comdat align 2 {
entry:
  %this.addr = alloca ptr, align 8
  store ptr %this, ptr %this.addr, align 8
  %this1 = load ptr, ptr %this.addr, align 8
  %_M_t = getelementptr inbounds %"class.std::__uniq_ptr_impl.113", ptr %this1, i32 0, i32 0
  %call = call noundef nonnull align 8 dereferenceable(8) ptr @_ZSt3getILm0EJPvPFvS0_EEERKNSt13tuple_elementIXT_ESt5tupleIJDpT0_EEE4typeERKS7_(ptr noundef nonnull align 8 dereferenceable(16) %_M_t) #11
  %0 = load ptr, ptr %call, align 8
  ret ptr %0
}

; Function Attrs: mustprogress nounwind uwtable
define linkonce_odr void @_ZNSt10unique_ptrIN5arrow4util18AsyncTaskScheduler4TaskESt14default_deleteIS3_EE5resetEPS3_(ptr noundef nonnull align 8 dereferenceable(8) %this, ptr noundef %__p) #2 comdat align 2 {
entry:
  %this.addr = alloca ptr, align 8
  %__p.addr = alloca ptr, align 8
  store ptr %this, ptr %this.addr, align 8
  store ptr %__p, ptr %__p.addr, align 8
  %this1 = load ptr, ptr %this.addr, align 8
  %_M_t = getelementptr inbounds %"class.std::unique_ptr.132", ptr %this1, i32 0, i32 0
  %0 = load ptr, ptr %__p.addr, align 8
  call void @_ZNSt15__uniq_ptr_implIN5arrow4util18AsyncTaskScheduler4TaskESt14default_deleteIS3_EE5resetEPS3_(ptr noundef nonnull align 8 dereferenceable(8) %_M_t, ptr noundef %0) #11
  ret void
}

; Function Attrs: mustprogress nounwind uwtable
define linkonce_odr noundef ptr @_ZNKSt10unique_ptrIvPFvPvEE3getEv(ptr noundef nonnull align 8 dereferenceable(16) %this) #2 comdat align 2 {
entry:
  %this.addr = alloca ptr, align 8
  store ptr %this, ptr %this.addr, align 8
  %this1 = load ptr, ptr %this.addr, align 8
  %_M_t = getelementptr inbounds %"class.std::unique_ptr.111", ptr %this1, i32 0, i32 0
  %call = call noundef ptr @_ZNKSt15__uniq_ptr_implIvPFvPvEE6_M_ptrEv(ptr noundef nonnull align 8 dereferenceable(16) %_M_t) #11
  ret ptr %call
}

; Function Attrs: mustprogress uwtable
define internal void @_ZZZN5arrow4util12_GLOBAL__N_122AsyncTaskSchedulerImpl12DoSubmitTaskESt10unique_ptrINS0_18AsyncTaskScheduler4TaskESt14default_deleteIS5_EEENUlvE_clEvENUlRKNS_6StatusEE_clESC_(ptr noundef nonnull align 8 dereferenceable(16) %this, ptr noundef nonnull align 8 dereferenceable(8) %st) #0 align 2 {
entry:
  %this.addr = alloca ptr, align 8
  %st.addr = alloca ptr, align 8
  store ptr %this, ptr %this.addr, align 8
  store ptr %st, ptr %st.addr, align 8
  %this1 = load ptr, ptr %this.addr, align 8
  %0 = getelementptr inbounds %class.anon.171, ptr %this1, i32 0, i32 0
  %1 = load ptr, ptr %0, align 8
  %2 = getelementptr inbounds %class.anon.171, ptr %this1, i32 0, i32 1
  call void @_ZNSt10unique_ptrIN5arrow4util18AsyncTaskScheduler4TaskESt14default_deleteIS3_EE5resetEPS3_(ptr noundef nonnull align 8 dereferenceable(8) %2, ptr noundef null) #11
  %3 = load ptr, ptr %st.addr, align 8
  call void @_ZN5arrow4util12_GLOBAL__N_122AsyncTaskSchedulerImpl14OnTaskFinishedERKNS_6StatusE(ptr noundef nonnull align 8 dereferenceable(112) %1, ptr noundef nonnull align 8 dereferenceable(8) %3)
  ret void
}

; Function Attrs: mustprogress nounwind uwtable
define linkonce_odr noundef nonnull align 8 dereferenceable(8) ptr @_ZNK5arrow6ResultINS_8internal5EmptyEE6statusEv(ptr noundef nonnull align 8 dereferenceable(9) %this) #2 comdat align 2 {
entry:
  %this.addr = alloca ptr, align 8
  store ptr %this, ptr %this.addr, align 8
  %this1 = load ptr, ptr %this.addr, align 8
  %status_ = getelementptr inbounds %"class.arrow::Result", ptr %this1, i32 0, i32 0
  ret ptr %status_
}

; Function Attrs: mustprogress nounwind uwtable
define linkonce_odr noundef ptr @_ZNK5arrow10FutureImpl10CastResultINS_8internal5EmptyEEEPNS_6ResultIT_EEv(ptr noundef nonnull align 8 dereferenceable(72) %this) #2 comdat align 2 {
entry:
  %this.addr = alloca ptr, align 8
  store ptr %this, ptr %this.addr, align 8
  %this1 = load ptr, ptr %this.addr, align 8
  %result_ = getelementptr inbounds %"class.arrow::FutureImpl", ptr %this1, i32 0, i32 3
  %call = call noundef ptr @_ZNKSt10unique_ptrIvPFvPvEE3getEv(ptr noundef nonnull align 8 dereferenceable(16) %result_) #11
  ret ptr %call
}

; Function Attrs: mustprogress uwtable
define internal void @_ZNO5arrow6FutureINS_8internal5EmptyEE21WrapStatusyOnComplete8CallbackIZZNS_4util12_GLOBAL__N_122AsyncTaskSchedulerImpl12DoSubmitTaskESt10unique_ptrINS6_18AsyncTaskScheduler4TaskESt14default_deleteISB_EEENUlvE_clEvEUlRKNS_6StatusEE_EclERKNS_10FutureImplE(ptr noundef nonnull align 8 dereferenceable(16) %this, ptr noundef nonnull align 8 dereferenceable(72) %impl) #0 align 2 {
entry:
  %this.addr = alloca ptr, align 8
  %impl.addr = alloca ptr, align 8
  store ptr %this, ptr %this.addr, align 8
  store ptr %impl, ptr %impl.addr, align 8
  %this1 = load ptr, ptr %this.addr, align 8
  %on_complete = getelementptr inbounds %"struct.arrow::Future<>::WrapStatusyOnComplete::Callback", ptr %this1, i32 0, i32 0
  %0 = load ptr, ptr %impl.addr, align 8
  %call = call noundef ptr @_ZNK5arrow10FutureImpl10CastResultINS_8internal5EmptyEEEPNS_6ResultIT_EEv(ptr noundef nonnull align 8 dereferenceable(72) %0)
  %call2 = call noundef nonnull align 8 dereferenceable(8) ptr @_ZNK5arrow6ResultINS_8internal5EmptyEE6statusEv(ptr noundef nonnull align 8 dereferenceable(9) %call)
  call void @_ZZZN5arrow4util12_GLOBAL__N_122AsyncTaskSchedulerImpl12DoSubmitTaskESt10unique_ptrINS0_18AsyncTaskScheduler4TaskESt14default_deleteIS5_EEENUlvE_clEvENUlRKNS_6StatusEE_clESC_(ptr noundef nonnull align 8 dereferenceable(16) %on_complete, ptr noundef nonnull align 8 dereferenceable(8) %call2)
  ret void
}

; Function Attrs: mustprogress uwtable
define internal void @_ZN5arrow8internal6FnOnceIFvRKNS_10FutureImplEEE6FnImplINS_6FutureINS0_5EmptyEE21WrapStatusyOnComplete8CallbackIZZNS_4util12_GLOBAL__N_122AsyncTaskSchedulerImpl12DoSubmitTaskESt10unique_ptrINSD_18AsyncTaskScheduler4TaskESt14default_deleteISI_EEENUlvE_clEvEUlRKNS_6StatusEE_EEE6invokeES4_(ptr noundef nonnull align 8 dereferenceable(24) %this, ptr noundef nonnull align 8 dereferenceable(72) %a) unnamed_addr #0 align 2 {
entry:
  %this.addr = alloca ptr, align 8
  %a.addr = alloca ptr, align 8
  store ptr %this, ptr %this.addr, align 8
  store ptr %a, ptr %a.addr, align 8
  %this1 = load ptr, ptr %this.addr, align 8
  %fn_ = getelementptr inbounds %"struct.arrow::internal::FnOnce<void (const arrow::FutureImpl &)>::FnImpl", ptr %this1, i32 0, i32 1
  %0 = load ptr, ptr %a.addr, align 8
  call void @_ZNO5arrow6FutureINS_8internal5EmptyEE21WrapStatusyOnComplete8CallbackIZZNS_4util12_GLOBAL__N_122AsyncTaskSchedulerImpl12DoSubmitTaskESt10unique_ptrINS6_18AsyncTaskScheduler4TaskESt14default_deleteISB_EEENUlvE_clEvEUlRKNS_6StatusEE_EclERKNS_10FutureImplE(ptr noundef nonnull align 8 dereferenceable(16) %fn_, ptr noundef nonnull align 8 dereferenceable(72) %0)
  ret void
}