; Function Attrs: mustprogress uwtable
define internal void @_ZN5arrow8internal6FnOnceIFvRKNS_10FutureImplEEE6FnImplINS_6FutureINS0_5EmptyEE21WrapStatusyOnComplete8CallbackIZZNS_4util12_GLOBAL__N_122AsyncTaskSchedulerImpl12DoSubmitTaskESt10unique_ptrINSD_18AsyncTaskScheduler4TaskESt14default_deleteISI_EEENUlvE_clEvEUlRKNS_6StatusEE_EEE6invokeES4_(ptr nocapture noundef nonnull align 8 dereferenceable(24) %this, ptr nocapture noundef nonnull readonly align 8 dereferenceable(72) %a) unnamed_addr #0 align 2 personality ptr @__gxx_personality_v0 {
entry:
  %fn_ = getelementptr inbounds i8, ptr %this, i64 8
  %0 = getelementptr inbounds i8, ptr %a, i64 40
  %a.val = load ptr, ptr %0, align 8
  %1 = load ptr, ptr %fn_, align 8
  %2 = getelementptr inbounds i8, ptr %this, i64 16
  %3 = load ptr, ptr %2, align 8
  store ptr null, ptr %2, align 8
  %tobool.not.i.i.i.i = icmp eq ptr %3, null
  br i1 %tobool.not.i.i.i.i, label %_ZNO5arrow6FutureINS_8internal5EmptyEE21WrapStatusyOnComplete8CallbackIZZNS_4util12_GLOBAL__N_122AsyncTaskSchedulerImpl12DoSubmitTaskESt10unique_ptrINS6_18AsyncTaskScheduler4TaskESt14default_deleteISB_EEENUlvE_clEvEUlRKNS_6StatusEE_EclERKNS_10FutureImplE.exit, label %_ZNKSt14default_deleteIN5arrow4util18AsyncTaskScheduler4TaskEEclEPS3_.exit.i.i.i.i

_ZNKSt14default_deleteIN5arrow4util18AsyncTaskScheduler4TaskEEclEPS3_.exit.i.i.i.i: ; preds = %entry
  %vtable.i.i.i.i.i = load ptr, ptr %3, align 8
  %vfn.i.i.i.i.i = getelementptr inbounds i8, ptr %vtable.i.i.i.i.i, i64 8
  %4 = load ptr, ptr %vfn.i.i.i.i.i, align 8
  tail call void %4(ptr noundef nonnull align 8 dereferenceable(16) %3) #20
  br label %_ZNO5arrow6FutureINS_8internal5EmptyEE21WrapStatusyOnComplete8CallbackIZZNS_4util12_GLOBAL__N_122AsyncTaskSchedulerImpl12DoSubmitTaskESt10unique_ptrINS6_18AsyncTaskScheduler4TaskESt14default_deleteISB_EEENUlvE_clEvEUlRKNS_6StatusEE_EclERKNS_10FutureImplE.exit

_ZNO5arrow6FutureINS_8internal5EmptyEE21WrapStatusyOnComplete8CallbackIZZNS_4util12_GLOBAL__N_122AsyncTaskSchedulerImpl12DoSubmitTaskESt10unique_ptrINS6_18AsyncTaskScheduler4TaskESt14default_deleteISB_EEENUlvE_clEvEUlRKNS_6StatusEE_EclERKNS_10FutureImplE.exit: ; preds = %entry, %_ZNKSt14default_deleteIN5arrow4util18AsyncTaskScheduler4TaskEEclEPS3_.exit.i.i.i.i
  tail call fastcc void @_ZN5arrow4util12_GLOBAL__N_122AsyncTaskSchedulerImpl14OnTaskFinishedERKNS_6StatusE(ptr noundef nonnull align 8 dereferenceable(112) %1, ptr noundef nonnull align 8 dereferenceable(8) %a.val)
  ret void
}